target datalayout = "e-m:e-p270:32:32-p271:32:32-p272:64:64-i64:64-i128:128-f80:128-n8:16:32:64-S128"
target triple = "x86_64-pc-linux-gnu"

%struct.conversation = type { ptr, ptr, ptr, i32, i32, i32, ptr, ptr, i32, ptr }

@.str.12 = private unnamed_addr constant [38 x i8] c"%s: Can't delete a NULL conversation.\00", align 1

; Function Attrs: null_pointer_is_valid sspstrong uwtable
define void @conversation_delete_proto_data(ptr noundef %0, i32 noundef %1) #0 {
  %3 = alloca ptr, align 8
  %4 = alloca i32, align 4
  store ptr %0, ptr %3, align 8
  store i32 %1, ptr %4, align 4
  %5 = load ptr, ptr %3, align 8
  %6 = icmp eq ptr %5, null
  br i1 %6, label %7, label %10

7:                                                ; preds = %2
  %8 = load i32, ptr %4, align 4
  %9 = call ptr @proto_get_protocol_name(i32 noundef %8)
  call void (ptr, ...) @proto_report_dissector_bug(ptr noundef @.str.12, ptr noundef %9) #13
  unreachable

10:                                               ; preds = %2
  %11 = load ptr, ptr %3, align 8
  %12 = getelementptr inbounds nuw %struct.conversation, ptr %11, i32 0, i32 6
  %13 = load ptr, ptr %12, align 8
  %14 = icmp ne ptr %13, null
  br i1 %14, label %15, label %21

15:                                               ; preds = %10
  %16 = load ptr, ptr %3, align 8
  %17 = getelementptr inbounds nuw %struct.conversation, ptr %16, i32 0, i32 6
  %18 = load ptr, ptr %17, align 8
  %19 = load i32, ptr %4, align 4
  %20 = call ptr @wmem_tree_remove32(ptr noundef %18, i32 noundef %19)
  br label %21

21:                                               ; preds = %15, %10
  ret void
}