; Function Attrs: null_pointer_is_valid sspstrong uwtable
define void @conversation_delete_proto_data(ptr noundef readonly captures(address_is_null) %0, i32 noundef %1) local_unnamed_addr #0 {
  %3 = icmp eq ptr %0, null
  br i1 %3, label %4, label %6

4:                                                ; preds = %2
  %5 = tail call ptr @proto_get_protocol_name(i32 noundef %1)
  tail call void (ptr, ...) @proto_report_dissector_bug(ptr noundef nonnull @.str.12, ptr noundef %5) #16
  unreachable

6:                                                ; preds = %2
  %7 = getelementptr inbounds nuw i8, ptr %0, i64 40
  %8 = load ptr, ptr %7, align 8
  %.not = icmp eq ptr %8, null
  br i1 %.not, label %11, label %9

9:                                                ; preds = %6
  %10 = tail call ptr @wmem_tree_remove32(ptr noundef nonnull %8, i32 noundef %1)
  br label %11

11:                                               ; preds = %9, %6
  ret void
}